(dp0
S'70720d07f7e0'
p1
(dp2
V\u98df\u4e3a\u5929\u5bb6\u5e38\u83dc
p3
(dp4
S'phone_number'
p5
V18311473793
p6
sS'average_consumption'
p7
F0.0
sS'score_environment'
p8
V\u670d\u52a1\uff1a0.0
p9
sS'comment_count'
p10
I0
sS'score_service'
p11
V 
p12
sS'comment_star'
p13
V\u51c6\u56db\u661f\u5546\u6237
p14
sS'address'
p15
V\u77f3\u4f5b\u8425\u897f\u91cc31\u53f7\u697c(\u5e86\u4e30\u5305\u5b50\u94fa)
p16
sS'lat'
p17
F40.0
sS'lng'
p18
F116.0
sS'type'
p19
V\u5317\u4eac\u9910\u5385
p20
ssV\u9ec4\u95e8\u8001\u7076\u706b\u9505(\u7ea2\u5e99\u5e97)
p21
(dp22
g5
V010-65077767
p23
sg7
F126.0
sg8
V\u73af\u5883\uff1a8.4
p24
sg10
I1156
sg11
V\u670d\u52a1\uff1a8.3
p25
sg13
V\u51c6\u4e94\u661f\u5546\u6237
p26
sg15
V\u7ea2\u5e99\u8def\u53e3\u4e1c100\u7c73(\u671d\u9633\u8def\u87f9\u8001\u5b8b1\u697c)
p27
sg17
F40.0
sg18
F116.0
sg19
V\u5317\u4eac\u9910\u5385
p28
ssV\u9890\u6d3e\u6b27\u534e\u5546\u52a1\u4f11\u95f2\u6c47\u9986\u5e7f\u5916\u5e97(\u5e7f\u5916\u5e97)
p29
(dp30
g5
V010-63372888
p31
sg7
F216.0
sg8
V\u73af\u5883\uff1a9.1
p32
sg10
I123
sg11
V\u5212\u7b97\uff1a8.9
p33
sg13
V\u51c6\u4e94\u661f\u5546\u6237
p34
sg15
V\u5e7f\u5b89\u95e8\u5916\u7ea2\u5c45\u885710\u5df710\u53f7
p35
sg17
F40.0
sg18
F116.0
sg19
V\u5317\u4eac\u4f11\u95f2\u5a31\u4e50
p36
ssV\u96ea\u5d34
p37
(dp38
g5
V15321285714
p39
sg7
F976.0
sg8
V\u73af\u5883\uff1a8.7
p40
sg10
I135
sg11
V\u670d\u52a1\uff1a8.9
p41
sg13
V\u4e94\u661f\u5546\u6237
p42
sg15
V\u5de5\u4f53\u4e1c\u8def\u4e2d\u56fd\u7ea2\u88573\u53f7\u697c109(\u4e2d\u56fd\u7ea2\u88573\u53f7\u697c109)
p43
sg17
F40.0
sg18
F116.0
sg19
V\u5317\u4eac\u9910\u5385
p44
ssV\u9ec4\u95e8\u8001\u7076\u706b\u9505(\u77f3\u4f5b\u8425\u5e97)
p45
(dp46
g5
V010-57745274
p47
sg7
F112.0
sg8
V\u73af\u5883\uff1a8.9
p48
sg10
I717
sg11
V\u670d\u52a1\uff1a9.0
p49
sg13
V\u4e94\u661f\u5546\u6237
p50
sg15
V\u77f3\u4f5b\u8425\u91cc\u4e1c\u8def12\u53f7(\u4fdd\u5229\u4e1c\u90e12\u53f7\u697c)
p51
sg17
F40.0
sg18
F116.0
sg19
V\u5317\u4eac\u9910\u5385
p52
ssV\u9ec4\u7116\u9e21\u7c73\u996d
p53
(dp54
g5
V18516899268
p55
sg7
F20.0
sg8
V\u73af\u5883\uff1a6.9
p56
sg10
I3
sg11
V\u670d\u52a1\uff1a6.9
p57
sg13
V\u51c6\u56db\u661f\u5546\u6237
p58
sg15
V\u5e7f\u5916\u5357\u885757-5(\u897f\u7fe0\u4e4b\u65c5\u8fde\u9501\u9152\u5e97\u767d\u7eb8\u574a\u5e97\u5357\u8fb9)
p59
sg17
F40.0
sg18
F116.0
sg19
V\u5317\u4eac\u9910\u5385
p60
ssV\u9999\u6ee1\u5802\u4e1c\u5317\u83dc
p61
(dp62
g5
V15210882117
p63
sg7
F0.0
sg8
V\u73af\u5883\uff1a7.1
p64
sg10
I1
sg11
V\u670d\u52a1\uff1a7.1
p65
sg13
V\u51c6\u56db\u661f\u5546\u6237
p66
sg15
V\u9999\u5317\u5cea\u8def\u897f50\u7c73
p67
sg17
F40.0
sg18
F116.0
sg19
V\u5317\u4eac\u9910\u5385
p68
ssV\u97e9\u59d1\u5a18\u7d2b\u83dc\u5305\u996d\u4e36\u62cc\u996d
p69
(dp70
g5
V13621067193
p71
sg7
F0.0
sg8
V\u670d\u52a1\uff1a0.0
p72
sg10
I0
sg11
V 
p73
sg13
V\u8be5\u5546\u6237\u6682\u65e0\u661f\u7ea7
p74
sg15
V\u795e\u8def\u885739\u53f7\u966210\u5e62-01\u5c42\uff08-1\uff09-107\uff08\u5185W011B\uff09\u53ef\u5473\u7f8e\u98df\u57ce\u5185
p75
sg17
F40.0
sg18
F116.0
sg19
V\u5317\u4eac\u9910\u5385
p76
ssV\u9b44\u529b\u9b44\u529b
p77
(dp78
g5
V010-84573719
p79
sg7
F0.0
sg8
V\u73af\u5883\uff1a7.1
p80
sg10
I1
sg11
V\u670d\u52a1\uff1a7.1
p81
sg13
V\u51c6\u56db\u661f\u5546\u6237
p82
sg15
V\u5c06\u53f0\u8def\u5546\u4e1a\u88574\u53f7
p83
sg17
F40.0
sg18
F116.0
sg19
V\u5317\u4eac\u9910\u5385
p84
ssV\u98df\u4e3a\u5929
p85
(dp86
g5
V13520260513
p87
sg7
F0.0
sg8
V\u670d\u52a1\uff1a0.0
p88
sg10
I49
sg11
V 
p89
sg13
V\u8be5\u5546\u6237\u6682\u65e0\u661f\u7ea7
p90
sg15
V\u5b66\u9662\u8def\u91d1\u7801\u5927\u53a6\u56db\u5c42
p91
sg17
F40.0
sg18
F116.0
sg19
V\u5317\u4eac\u9910\u5385
p92
sssS'10f681519dc2'
p93
(dp94
g3
g4
sg21
g22
sg29
g30
sg37
g38
sg45
g46
sg53
g54
sg61
g62
sg69
g70
sg77
g78
sg85
g86
ssS'38D40B02BD6C'
p95
(dp96
g3
g4
sg21
g22
sg29
g30
sg37
g38
sg45
g46
sg53
g54
sg61
g62
sg69
g70
sg77
g78
sg85
g86
ssS'f49ff3dc4393'
p97
(dp98
g3
g4
sg21
g22
sg29
g30
sg37
g38
sg45
g46
sg53
g54
sg61
g62
sg69
g70
sg77
g78
sg85
g86
ssS'F025B7200BAB'
p99
(dp100
g3
g4
sg21
g22
sg29
g30
sg37
g38
sg45
g46
sg53
g54
sg61
g62
sg69
g70
sg77
g78
sg85
g86
ssS'dc6dcd12888d'
p101
(dp102
g3
g4
sg21
g22
sg29
g30
sg37
g38
sg45
g46
sg53
g54
sg61
g62
sg69
g70
sg77
g78
sg85
g86
ssS'2c5bb8d909a1'
p103
(dp104
g3
g4
sg21
g22
sg29
g30
sg37
g38
sg45
g46
sg53
g54
sg61
g62
sg69
g70
sg77
g78
sg85
g86
ssS'843838F289E2'
p105
(dp106
g3
g4
sg21
g22
sg29
g30
sg37
g38
sg45
g46
sg53
g54
sg61
g62
sg69
g70
sg77
g78
sg85
g86
ssS'e45aa24205aa'
p107
(dp108
g3
g4
sg21
g22
sg29
g30
sg37
g38
sg45
g46
sg53
g54
sg61
g62
sg69
g70
sg77
g78
sg85
g86
ssS'0c1daf66152c'
p109
(dp110
g3
g4
sg21
g22
sg29
g30
sg37
g38
sg45
g46
sg53
g54
sg61
g62
sg69
g70
sg77
g78
sg85
g86
ssS'48db50360f33'
p111
(dp112
g3
g4
sg21
g22
sg29
g30
sg37
g38
sg45
g46
sg53
g54
sg61
g62
sg69
g70
sg77
g78
sg85
g86
ssS'C8A823B82F04'
p113
(dp114
g3
g4
sg21
g22
sg29
g30
sg37
g38
sg45
g46
sg53
g54
sg61
g62
sg69
g70
sg77
g78
sg85
g86
ssS'7451ba081283'
p115
(dp116
g3
g4
sg21
g22
sg29
g30
sg37
g38
sg45
g46
sg53
g54
sg61
g62
sg69
g70
sg77
g78
sg85
g86
ssS'f42981fcdf93'
p117
(dp118
g3
g4
sg21
g22
sg29
g30
sg37
g38
sg45
g46
sg53
g54
sg61
g62
sg69
g70
sg77
g78
sg85
g86
ssS'38bc1ae7a16e'
p119
(dp120
g3
g4
sg21
g22
sg29
g30
sg37
g38
sg45
g46
sg53
g54
sg61
g62
sg69
g70
sg77
g78
sg85
g86
ssS'30D6C98DF9D2'
p121
(dp122
g3
g4
sg21
g22
sg29
g30
sg37
g38
sg45
g46
sg53
g54
sg61
g62
sg69
g70
sg77
g78
sg85
g86
ssS'3ca348796ce6'
p123
(dp124
g3
g4
sg21
g22
sg29
g30
sg37
g38
sg45
g46
sg53
g54
sg61
g62
sg69
g70
sg77
g78
sg85
g86
ssS'80717aabab31'
p125
(dp126
g3
g4
sg21
g22
sg29
g30
sg37
g38
sg45
g46
sg53
g54
sg61
g62
sg69
g70
sg77
g78
sg85
g86
ssS'bc3aeae644cf'
p127
(dp128
g3
g4
sg21
g22
sg29
g30
sg37
g38
sg45
g46
sg53
g54
sg61
g62
sg69
g70
sg77
g78
sg85
g86
ssS'3c9157d9be43'
p129
(dp130
g3
g4
sg21
g22
sg29
g30
sg37
g38
sg45
g46
sg53
g54
sg61
g62
sg69
g70
sg77
g78
sg85
g86
ssS'50a72be1bb5d'
p131
(dp132
g3
g4
sg21
g22
sg29
g30
sg37
g38
sg45
g46
sg53
g54
sg61
g62
sg69
g70
sg77
g78
sg85
g86
ssS'3ca3485b9848'
p133
(dp134
g3
g4
sg21
g22
sg29
g30
sg37
g38
sg45
g46
sg53
g54
sg61
g62
sg69
g70
sg77
g78
sg85
g86
ssS'c46699b83f7b'
p135
(dp136
g3
g4
sg21
g22
sg29
g30
sg37
g38
sg45
g46
sg53
g54
sg61
g62
sg69
g70
sg77
g78
sg85
g86
ssS'000ce7d31aa6'
p137
(dp138
g3
g4
sg21
g22
sg29
g30
sg37
g38
sg45
g46
sg53
g54
sg61
g62
sg69
g70
sg77
g78
sg85
g86
ssS'00aefadd2b26'
p139
(dp140
g3
g4
sg21
g22
sg29
g30
sg37
g38
sg45
g46
sg53
g54
sg61
g62
sg69
g70
sg77
g78
sg85
g86
ssS'AC5F3E01C8AA'
p141
(dp142
g3
g4
sg21
g22
sg29
g30
sg37
g38
sg45
g46
sg53
g54
sg61
g62
sg69
g70
sg77
g78
sg85
g86
ssS'38bc1ae5a752'
p143
(dp144
g3
g4
sg21
g22
sg29
g30
sg37
g38
sg45
g46
sg53
g54
sg61
g62
sg69
g70
sg77
g78
sg85
g86
ssS'0cd6bd69330b'
p145
(dp146
g3
g4
sg21
g22
sg29
g30
sg37
g38
sg45
g46
sg53
g54
sg61
g62
sg69
g70
sg77
g78
sg85
g86
ssS'FCDBB31AD669'
p147
(dp148
g3
g4
sg21
g22
sg29
g30
sg37
g38
sg45
g46
sg53
g54
sg61
g62
sg69
g70
sg77
g78
sg85
g86
ssS'F409D8161B3D'
p149
(dp150
g3
g4
sg21
g22
sg29
g30
sg37
g38
sg45
g46
sg53
g54
sg61
g62
sg69
g70
sg77
g78
sg85
g86
ssS'94fe2208f2bb'
p151
(dp152
g3
g4
sg21
g22
sg29
g30
sg37
g38
sg45
g46
sg53
g54
sg61
g62
sg69
g70
sg77
g78
sg85
g86
ssS'020000000000'
p153
(dp154
g3
g4
sg21
g22
sg29
g30
sg37
g38
sg45
g46
sg53
g54
sg61
g62
sg69
g70
sg77
g78
sg85
g86
ssS'8c99e693e6b4'
p155
(dp156
g3
g4
sg21
g22
sg29
g30
sg37
g38
sg45
g46
sg53
g54
sg61
g62
sg69
g70
sg77
g78
sg85
g86
ss.